; ModuleID = 'source-C-CXX/56/371.c'
source_filename = "source-C-CXX/56/371.c"
target datalayout = "e-m:e-p270:32:32-p271:32:32-p272:64:64-i64:64-f80:128-n8:16:32:64-S128"
target triple = "x86_64-pc-linux-gnu"

@.str = private unnamed_addr constant [3 x i8] c"%d\00", align 1

; Function Attrs: nounwind sspstrong uwtable
define dso_local i32 @main() local_unnamed_addr #0 {
  %1 = alloca [50 x [32 x i8]], align 16
  %2 = alloca i32, align 4
  %3 = getelementptr inbounds [50 x [32 x i8]], [50 x [32 x i8]]* %1, i64 0, i64 0, i64 0
  call void @llvm.lifetime.start.p0i8(i64 1600, i8* nonnull %3) #5
  %4 = bitcast i32* %2 to i8*
  call void @llvm.lifetime.start.p0i8(i64 4, i8* nonnull %4) #5
  %5 = call i32 (i8*, ...) @__isoc99_scanf(i8* getelementptr inbounds ([3 x i8], [3 x i8]* @.str, i64 0, i64 0), i32* nonnull %2)
  %6 = load i32, i32* %2, align 4, !tbaa !5
  %7 = icmp slt i32 %6, 0
  br i1 %7, label %60, label %10

8:                                                ; preds = %47
  %9 = icmp slt i32 %49, 0
  br i1 %9, label %60, label %52

10:                                               ; preds = %0, %47
  %11 = phi i64 [ %48, %47 ], [ 0, %0 ]
  %12 = getelementptr inbounds [50 x [32 x i8]], [50 x [32 x i8]]* %1, i64 0, i64 %11, i64 0
  %13 = call i32 (i8*, ...) bitcast (i32 (...)* @gets to i32 (i8*, ...)*)(i8* nonnull %12) #5
  %14 = call i64 @strlen(i8* noundef nonnull %12) #6
  %15 = add i64 %14, -1
  %16 = getelementptr inbounds [50 x [32 x i8]], [50 x [32 x i8]]* %1, i64 0, i64 %11, i64 %15
  %17 = load i8, i8* %16, align 1, !tbaa !9
  switch i8 %17, label %47 [
    i8 114, label %18
    i8 121, label %23
    i8 103, label %28
  ]

18:                                               ; preds = %10
  %19 = add i64 %14, -2
  %20 = getelementptr inbounds [50 x [32 x i8]], [50 x [32 x i8]]* %1, i64 0, i64 %11, i64 %19
  %21 = load i8, i8* %20, align 1, !tbaa !9
  %22 = icmp eq i8 %21, 101
  br i1 %22, label %42, label %47

23:                                               ; preds = %10
  %24 = add i64 %14, -2
  %25 = getelementptr inbounds [50 x [32 x i8]], [50 x [32 x i8]]* %1, i64 0, i64 %11, i64 %24
  %26 = load i8, i8* %25, align 1, !tbaa !9
  %27 = icmp eq i8 %26, 108
  br i1 %27, label %42, label %47

28:                                               ; preds = %10
  %29 = add i64 %14, -2
  %30 = getelementptr inbounds [50 x [32 x i8]], [50 x [32 x i8]]* %1, i64 0, i64 %11, i64 %29
  %31 = load i8, i8* %30, align 1, !tbaa !9
  %32 = icmp eq i8 %31, 110
  br i1 %32, label %33, label %47

33:                                               ; preds = %28
  %34 = add i64 %14, -3
  %35 = getelementptr inbounds [50 x [32 x i8]], [50 x [32 x i8]]* %1, i64 0, i64 %11, i64 %34
  %36 = load i8, i8* %35, align 1, !tbaa !9
  %37 = icmp eq i8 %36, 105
  br i1 %37, label %38, label %47

38:                                               ; preds = %33
  store i8 0, i8* %16, align 1, !tbaa !9
  %39 = call i64 @strlen(i8* noundef nonnull %12) #6
  %40 = add i64 %39, -1
  %41 = getelementptr inbounds [50 x [32 x i8]], [50 x [32 x i8]]* %1, i64 0, i64 %11, i64 %40
  br label %42

42:                                               ; preds = %18, %23, %38
  %43 = phi i8* [ %41, %38 ], [ %16, %23 ], [ %16, %18 ]
  store i8 0, i8* %43, align 1, !tbaa !9
  %44 = call i64 @strlen(i8* noundef nonnull %12) #6
  %45 = add i64 %44, -1
  %46 = getelementptr inbounds [50 x [32 x i8]], [50 x [32 x i8]]* %1, i64 0, i64 %11, i64 %45
  store i8 0, i8* %46, align 1, !tbaa !9
  br label %47

47:                                               ; preds = %42, %10, %18, %23, %33, %28
  %48 = add nuw nsw i64 %11, 1
  %49 = load i32, i32* %2, align 4, !tbaa !5
  %50 = sext i32 %49 to i64
  %51 = icmp slt i64 %11, %50
  br i1 %51, label %10, label %8, !llvm.loop !10

52:                                               ; preds = %8, %52
  %53 = phi i64 [ %56, %52 ], [ 0, %8 ]
  %54 = getelementptr inbounds [50 x [32 x i8]], [50 x [32 x i8]]* %1, i64 0, i64 %53, i64 0
  %55 = call i32 @puts(i8* nonnull %54)
  %56 = add nuw nsw i64 %53, 1
  %57 = load i32, i32* %2, align 4, !tbaa !5
  %58 = sext i32 %57 to i64
  %59 = icmp slt i64 %53, %58
  br i1 %59, label %52, label %60, !llvm.loop !12

60:                                               ; preds = %52, %0, %8
  call void @llvm.lifetime.end.p0i8(i64 4, i8* nonnull %4) #5
  call void @llvm.lifetime.end.p0i8(i64 1600, i8* nonnull %3) #5
  ret i32 0
}

; Function Attrs: argmemonly mustprogress nofree nosync nounwind willreturn
declare void @llvm.lifetime.start.p0i8(i64 immarg, i8* nocapture) #1

; Function Attrs: nofree nounwind
declare noundef i32 @__isoc99_scanf(i8* nocapture noundef readonly, ...) local_unnamed_addr #2

declare i32 @gets(...) local_unnamed_addr #3

; Function Attrs: argmemonly mustprogress nofree nounwind readonly willreturn
declare i64 @strlen(i8* nocapture) local_unnamed_addr #4

; Function Attrs: nofree nounwind
declare noundef i32 @puts(i8* nocapture noundef readonly) local_unnamed_addr #2

; Function Attrs: argmemonly mustprogress nofree nosync nounwind willreturn
declare void @llvm.lifetime.end.p0i8(i64 immarg, i8* nocapture) #1


!llvm.module.flags = !{!0, !1, !2, !3}
!llvm.ident = !{!4}

!0 = !{i32 1, !"wchar_size", i32 4}
!1 = !{i32 7, !"PIC Level", i32 2}
!2 = !{i32 7, !"PIE Level", i32 2}
!3 = !{i32 7, !"uwtable", i32 1}
!4 = !{!"clang version 13.0.0"}
!5 = !{!6, !6, i64 0}
!6 = !{!"int", !7, i64 0}
!7 = !{!"omnipotent char", !8, i64 0}
!8 = !{!"Simple C/C++ TBAA"}
!9 = !{!7, !7, i64 0}
!10 = distinct !{!10, !11}
!11 = !{!"llvm.loop.mustprogress"}
!12 = distinct !{!12, !11}
